; Function Attrs: mustprogress nofree norecurse nosync nounwind willreturn memory(argmem: read) uwtable
define i32 @UI_get_result_maxsize(ptr noundef readonly captures(none) %0) local_unnamed_addr #5 {
  %2 = load i32, ptr %0, align 8, !tbaa !25
  %.off = add i32 %2, -1
  %switch = icmp ult i32 %.off, 2
  br i1 %switch, label %3, label %6

3:                                                ; preds = %1
  %4 = getelementptr inbounds nuw i8, ptr %0, i64 44
  %5 = load i32, ptr %4, align 4, !tbaa !26
  br label %6

6:                                                ; preds = %1, %3
  %.0 = phi i32 [ %5, %3 ], [ -1, %1 ]
  ret i32 %.0
}